; Function Attrs: nofree norecurse nosync nounwind memory(argmem: readwrite) uwtable
define void @ff_vp3dsp_v_loop_filter_12(ptr noundef captures(none) %0, i64 noundef %1, ptr noundef readonly captures(none) %2) local_unnamed_addr #0 {
  %4 = sub nsw i64 0, %1
  %5 = shl nsw i64 %4, 1
  br label %6

6:                                                ; preds = %3, %6
  %.0.i.idx6 = phi i64 [ 0, %3 ], [ %.0.i.add, %6 ]
  %.0.i.ptr = getelementptr inbounds nuw i8, ptr %0, i64 %.0.i.idx6
  %7 = getelementptr inbounds i8, ptr %.0.i.ptr, i64 %5
  %8 = load i8, ptr %7, align 1, !tbaa !10
  %9 = zext i8 %8 to i32
  %10 = getelementptr inbounds i8, ptr %.0.i.ptr, i64 %1
  %11 = load i8, ptr %10, align 1, !tbaa !10
  %12 = zext i8 %11 to i32
  %13 = load i8, ptr %.0.i.ptr, align 1, !tbaa !10
  %14 = zext i8 %13 to i32
  %15 = getelementptr inbounds i8, ptr %.0.i.ptr, i64 %4
  %16 = load i8, ptr %15, align 1, !tbaa !10
  %17 = zext i8 %16 to i32
  %18 = sub nsw i32 %14, %17
  %19 = mul nsw i32 %18, 3
  %20 = add nuw nsw i32 %9, 4
  %21 = sub nsw i32 %20, %12
  %22 = add nsw i32 %21, %19
  %23 = ashr i32 %22, 3
  %24 = sext i32 %23 to i64
  %25 = getelementptr inbounds i32, ptr %2, i64 %24
  %26 = load i32, ptr %25, align 4, !tbaa !12
  %27 = add nsw i32 %26, %17
  %.not.i3 = icmp ult i32 %27, 256
  %isnotneg.i4 = icmp sgt i32 %27, -1
  %28 = sext i1 %isnotneg.i4 to i8
  %29 = trunc nuw i32 %27 to i8
  %.0.i5 = select i1 %.not.i3, i8 %29, i8 %28
  store i8 %.0.i5, ptr %15, align 1, !tbaa !10
  %30 = load i8, ptr %.0.i.ptr, align 1, !tbaa !10
  %31 = zext i8 %30 to i32
  %32 = sub nsw i32 %31, %26
  %.not.i = icmp ult i32 %32, 256
  %isnotneg.i = icmp sgt i32 %32, -1
  %33 = sext i1 %isnotneg.i to i8
  %34 = trunc nuw i32 %32 to i8
  %.0.i2 = select i1 %.not.i, i8 %34, i8 %33
  store i8 %.0.i2, ptr %.0.i.ptr, align 1, !tbaa !10
  %.0.i.add = add nuw nsw i64 %.0.i.idx6, 1
  %exitcond.not = icmp eq i64 %.0.i.add, 12
  br i1 %exitcond.not, label %vp3_v_loop_filter_c.exit, label %6, !llvm.loop !14

vp3_v_loop_filter_c.exit:                         ; preds = %6
  ret void
}